target datalayout = "e-m:e-p270:32:32-p271:32:32-p272:64:64-i64:64-i128:128-f80:128-n8:16:32:64-S128"
target triple = "x86_64-pc-linux-gnu"

%"class.std::__cxx11::basic_string" = type { %"struct.std::__cxx11::basic_string<char>::_Alloc_hider", i64, %union.anon }
%"struct.std::__cxx11::basic_string<char>::_Alloc_hider" = type { ptr }
%union.anon = type { i64, [8 x i8] }
%"struct.std::_Rb_tree_header" = type { %"struct.std::_Rb_tree_node_base", i64 }
%"struct.std::_Rb_tree_node_base" = type { i32, ptr, ptr, ptr }
%"class.std::map.41" = type { %"class.std::_Rb_tree.42" }
%"class.std::_Rb_tree.42" = type { %"struct.std::_Rb_tree<std::__cxx11::basic_string<char>, std::pair<const std::__cxx11::basic_string<char>, std::__cxx11::basic_string<char>>, std::_Select1st<std::pair<const std::__cxx11::basic_string<char>, std::__cxx11::basic_string<char>>>, std::less<std::__cxx11::basic_string<char>>>::_Rb_tree_impl" }
%"struct.std::_Rb_tree<std::__cxx11::basic_string<char>, std::pair<const std::__cxx11::basic_string<char>, std::__cxx11::basic_string<char>>, std::_Select1st<std::pair<const std::__cxx11::basic_string<char>, std::__cxx11::basic_string<char>>>, std::less<std::__cxx11::basic_string<char>>>::_Rb_tree_impl" = type { %"struct.std::_Rb_tree_key_compare.38", %"struct.std::_Rb_tree_header" }
%"struct.std::_Rb_tree_key_compare.38" = type { %"struct.std::less.39" }
%"struct.std::less.39" = type { i8 }
%class.cmGeneratorTarget = type { ptr, ptr, ptr, ptr, %"class.std::__cxx11::basic_string", %"class.std::map.89", %"class.std::map.89", %"class.std::map.89", %"class.std::map.89", %"class.std::map.89", %"class.std::map.89", %"class.std::map.97", i8, %"class.std::__cxx11::basic_string", %"class.std::map.102", %"class.std::set.46", %"class.std::map.110", %"class.std::set.115", %"class.std::unordered_map.120", %"class.std::map.134", %"class.std::__cxx11::basic_string", i8, %"class.std::map.139", %"class.std::map.144", %"class.std::map.149", %"class.std::map.149", %"class.std::__cxx11::basic_string", %"class.std::map.154", i8, %"class.std::map.159", %"class.std::map.164", %"class.std::map.169", %"class.std::map.174", %"class.std::map.174", %"class.std::map.179", %"class.std::map.184", %"class.std::vector.189", %"class.std::unordered_map.194", %"class.std::vector.208", %"class.std::vector.208", %"class.std::vector.208", %"class.std::vector.208", %"class.std::vector.208", %"class.std::vector.208", %"class.std::vector.208", %"class.std::vector.208", %"class.std::set.46", %"class.std::map.41", %"class.std::map.41", %"class.std::map.41", %"class.std::map.41", %"class.std::map.41", %"class.std::map.41", %"class.std::unordered_set", %"class.std::unordered_map.226", %"class.std::unordered_map.226", %"class.std::map.240", %"class.std::map.240", %"class.std::map.245", %"class.std::map.250", %"class.std::map.255", %"class.std::set.263", %"struct.cmPolicies::PolicyMap", i8, i8, i8, i8, i8, i8, i8, i8, i8, i8, i8, i32, %"class.std::map.271", %"class.std::map.276", %"class.std::map.41", %"class.std::map.281" }
%"class.std::map.89" = type { %"class.std::_Rb_tree.90" }
%"class.std::_Rb_tree.90" = type { %"struct.std::_Rb_tree<std::pair<std::__cxx11::basic_string<char>, std::__cxx11::basic_string<char>>, std::pair<const std::pair<std::__cxx11::basic_string<char>, std::__cxx11::basic_string<char>>, std::vector<BT<std::__cxx11::basic_string<char>>>>, std::_Select1st<std::pair<const std::pair<std::__cxx11::basic_string<char>, std::__cxx11::basic_string<char>>, std::vector<BT<std::__cxx11::basic_string<char>>>>>, std::less<std::pair<std::__cxx11::basic_string<char>, std::__cxx11::basic_string<char>>>>::_Rb_tree_impl" }
%"struct.std::_Rb_tree<std::pair<std::__cxx11::basic_string<char>, std::__cxx11::basic_string<char>>, std::pair<const std::pair<std::__cxx11::basic_string<char>, std::__cxx11::basic_string<char>>, std::vector<BT<std::__cxx11::basic_string<char>>>>, std::_Select1st<std::pair<const std::pair<std::__cxx11::basic_string<char>, std::__cxx11::basic_string<char>>, std::vector<BT<std::__cxx11::basic_string<char>>>>>, std::less<std::pair<std::__cxx11::basic_string<char>, std::__cxx11::basic_string<char>>>>::_Rb_tree_impl" = type { %"struct.std::_Rb_tree_key_compare.94", %"struct.std::_Rb_tree_header" }
%"struct.std::_Rb_tree_key_compare.94" = type { %"struct.std::less.95" }
%"struct.std::less.95" = type { i8 }
%"class.std::map.97" = type { %"class.std::_Rb_tree.98" }
%"class.std::_Rb_tree.98" = type { %"struct.std::_Rb_tree<std::__cxx11::basic_string<char>, std::pair<const std::__cxx11::basic_string<char>, cmGeneratorTarget::CompileInfo>, std::_Select1st<std::pair<const std::__cxx11::basic_string<char>, cmGeneratorTarget::CompileInfo>>, std::less<std::__cxx11::basic_string<char>>>::_Rb_tree_impl" }
%"struct.std::_Rb_tree<std::__cxx11::basic_string<char>, std::pair<const std::__cxx11::basic_string<char>, cmGeneratorTarget::CompileInfo>, std::_Select1st<std::pair<const std::__cxx11::basic_string<char>, cmGeneratorTarget::CompileInfo>>, std::less<std::__cxx11::basic_string<char>>>::_Rb_tree_impl" = type { %"struct.std::_Rb_tree_key_compare.38", %"struct.std::_Rb_tree_header" }
%"class.std::map.102" = type { %"class.std::_Rb_tree.103" }
%"class.std::_Rb_tree.103" = type { %"struct.std::_Rb_tree<const cmSourceFile *, std::pair<const cmSourceFile *const, cmGeneratorTarget::SourceEntry>, std::_Select1st<std::pair<const cmSourceFile *const, cmGeneratorTarget::SourceEntry>>, std::less<const cmSourceFile *>>::_Rb_tree_impl" }
%"struct.std::_Rb_tree<const cmSourceFile *, std::pair<const cmSourceFile *const, cmGeneratorTarget::SourceEntry>, std::_Select1st<std::pair<const cmSourceFile *const, cmGeneratorTarget::SourceEntry>>, std::less<const cmSourceFile *>>::_Rb_tree_impl" = type { %"struct.std::_Rb_tree_key_compare.107", %"struct.std::_Rb_tree_header" }
%"struct.std::_Rb_tree_key_compare.107" = type { %"struct.std::less.108" }
%"struct.std::less.108" = type { i8 }
%"class.std::map.110" = type { %"class.std::_Rb_tree.111" }
%"class.std::_Rb_tree.111" = type { %"struct.std::_Rb_tree<const cmSourceFile *, std::pair<const cmSourceFile *const, std::__cxx11::basic_string<char>>, std::_Select1st<std::pair<const cmSourceFile *const, std::__cxx11::basic_string<char>>>, std::less<const cmSourceFile *>>::_Rb_tree_impl" }
%"struct.std::_Rb_tree<const cmSourceFile *, std::pair<const cmSourceFile *const, std::__cxx11::basic_string<char>>, std::_Select1st<std::pair<const cmSourceFile *const, std::__cxx11::basic_string<char>>>, std::less<const cmSourceFile *>>::_Rb_tree_impl" = type { %"struct.std::_Rb_tree_key_compare.107", %"struct.std::_Rb_tree_header" }
%"class.std::set.115" = type { %"class.std::_Rb_tree.116" }
%"class.std::_Rb_tree.116" = type { %"struct.std::_Rb_tree<const cmSourceFile *, const cmSourceFile *, std::_Identity<const cmSourceFile *>, std::less<const cmSourceFile *>>::_Rb_tree_impl" }
%"struct.std::_Rb_tree<const cmSourceFile *, const cmSourceFile *, std::_Identity<const cmSourceFile *>, std::less<const cmSourceFile *>>::_Rb_tree_impl" = type { %"struct.std::_Rb_tree_key_compare.107", %"struct.std::_Rb_tree_header" }
%"class.std::unordered_map.120" = type { %"class.std::_Hashtable.121" }
%"class.std::_Hashtable.121" = type { ptr, i64, %"struct.std::__detail::_Hash_node_base", i64, %"struct.std::__detail::_Prime_rehash_policy", ptr }
%"struct.std::__detail::_Hash_node_base" = type { ptr }
%"struct.std::__detail::_Prime_rehash_policy" = type { float, i64 }
%"class.std::map.134" = type { %"class.std::_Rb_tree.135" }
%"class.std::_Rb_tree.135" = type { %"struct.std::_Rb_tree<std::__cxx11::basic_string<char>, std::pair<const std::__cxx11::basic_string<char>, std::vector<std::__cxx11::basic_string<char>>>, std::_Select1st<std::pair<const std::__cxx11::basic_string<char>, std::vector<std::__cxx11::basic_string<char>>>>, std::less<std::__cxx11::basic_string<char>>>::_Rb_tree_impl" }
%"struct.std::_Rb_tree<std::__cxx11::basic_string<char>, std::pair<const std::__cxx11::basic_string<char>, std::vector<std::__cxx11::basic_string<char>>>, std::_Select1st<std::pair<const std::__cxx11::basic_string<char>, std::vector<std::__cxx11::basic_string<char>>>>, std::less<std::__cxx11::basic_string<char>>>::_Rb_tree_impl" = type { %"struct.std::_Rb_tree_key_compare.38", %"struct.std::_Rb_tree_header" }
%"class.std::map.139" = type { %"class.std::_Rb_tree.140" }
%"class.std::_Rb_tree.140" = type { %"struct.std::_Rb_tree<const cmSourceFile *, std::pair<const cmSourceFile *const, cmGeneratorTarget::SourceFileFlags>, std::_Select1st<std::pair<const cmSourceFile *const, cmGeneratorTarget::SourceFileFlags>>, std::less<const cmSourceFile *>>::_Rb_tree_impl" }
%"struct.std::_Rb_tree<const cmSourceFile *, std::pair<const cmSourceFile *const, cmGeneratorTarget::SourceFileFlags>, std::_Select1st<std::pair<const cmSourceFile *const, cmGeneratorTarget::SourceFileFlags>>, std::less<const cmSourceFile *>>::_Rb_tree_impl" = type { %"struct.std::_Rb_tree_key_compare.107", %"struct.std::_Rb_tree_header" }
%"class.std::map.144" = type { %"class.std::_Rb_tree.145" }
%"class.std::_Rb_tree.145" = type { %"struct.std::_Rb_tree<std::__cxx11::basic_string<char>, std::pair<const std::__cxx11::basic_string<char>, bool>, std::_Select1st<std::pair<const std::__cxx11::basic_string<char>, bool>>, std::less<std::__cxx11::basic_string<char>>>::_Rb_tree_impl" }
%"struct.std::_Rb_tree<std::__cxx11::basic_string<char>, std::pair<const std::__cxx11::basic_string<char>, bool>, std::_Select1st<std::pair<const std::__cxx11::basic_string<char>, bool>>, std::less<std::__cxx11::basic_string<char>>>::_Rb_tree_impl" = type { %"struct.std::_Rb_tree_key_compare.38", %"struct.std::_Rb_tree_header" }
%"class.std::map.149" = type { %"class.std::_Rb_tree.150" }
%"class.std::_Rb_tree.150" = type { %"struct.std::_Rb_tree<std::__cxx11::basic_string<char>, std::pair<const std::__cxx11::basic_string<char>, cmGeneratorTarget::NameComponents>, std::_Select1st<std::pair<const std::__cxx11::basic_string<char>, cmGeneratorTarget::NameComponents>>, std::less<std::__cxx11::basic_string<char>>>::_Rb_tree_impl" }
%"struct.std::_Rb_tree<std::__cxx11::basic_string<char>, std::pair<const std::__cxx11::basic_string<char>, cmGeneratorTarget::NameComponents>, std::_Select1st<std::pair<const std::__cxx11::basic_string<char>, cmGeneratorTarget::NameComponents>>, std::less<std::__cxx11::basic_string<char>>>::_Rb_tree_impl" = type { %"struct.std::_Rb_tree_key_compare.38", %"struct.std::_Rb_tree_header" }
%"class.std::map.154" = type { %"class.std::_Rb_tree.155" }
%"class.std::_Rb_tree.155" = type { %"struct.std::_Rb_tree<std::__cxx11::basic_string<char>, std::pair<const std::__cxx11::basic_string<char>, cmGeneratorTarget::LinkClosure>, std::_Select1st<std::pair<const std::__cxx11::basic_string<char>, cmGeneratorTarget::LinkClosure>>, std::less<std::__cxx11::basic_string<char>>>::_Rb_tree_impl" }
%"struct.std::_Rb_tree<std::__cxx11::basic_string<char>, std::pair<const std::__cxx11::basic_string<char>, cmGeneratorTarget::LinkClosure>, std::_Select1st<std::pair<const std::__cxx11::basic_string<char>, cmGeneratorTarget::LinkClosure>>, std::less<std::__cxx11::basic_string<char>>>::_Rb_tree_impl" = type { %"struct.std::_Rb_tree_key_compare.38", %"struct.std::_Rb_tree_header" }
%"class.std::map.159" = type { %"class.std::_Rb_tree.160" }
%"class.std::_Rb_tree.160" = type { %"struct.std::_Rb_tree<std::__cxx11::basic_string<char>, std::pair<const std::__cxx11::basic_string<char>, cmGeneratorTarget::CompatibleInterfaces>, std::_Select1st<std::pair<const std::__cxx11::basic_string<char>, cmGeneratorTarget::CompatibleInterfaces>>, std::less<std::__cxx11::basic_string<char>>>::_Rb_tree_impl" }
%"struct.std::_Rb_tree<std::__cxx11::basic_string<char>, std::pair<const std::__cxx11::basic_string<char>, cmGeneratorTarget::CompatibleInterfaces>, std::_Select1st<std::pair<const std::__cxx11::basic_string<char>, cmGeneratorTarget::CompatibleInterfaces>>, std::less<std::__cxx11::basic_string<char>>>::_Rb_tree_impl" = type { %"struct.std::_Rb_tree_key_compare.38", %"struct.std::_Rb_tree_header" }
%"class.std::map.164" = type { %"class.std::_Rb_tree.165" }
%"class.std::_Rb_tree.165" = type { %"struct.std::_Rb_tree<std::__cxx11::basic_string<char>, std::pair<const std::__cxx11::basic_string<char>, std::unique_ptr<cmComputeLinkInformation>>, std::_Select1st<std::pair<const std::__cxx11::basic_string<char>, std::unique_ptr<cmComputeLinkInformation>>>, std::less<std::__cxx11::basic_string<char>>>::_Rb_tree_impl" }
%"struct.std::_Rb_tree<std::__cxx11::basic_string<char>, std::pair<const std::__cxx11::basic_string<char>, std::unique_ptr<cmComputeLinkInformation>>, std::_Select1st<std::pair<const std::__cxx11::basic_string<char>, std::unique_ptr<cmComputeLinkInformation>>>, std::less<std::__cxx11::basic_string<char>>>::_Rb_tree_impl" = type { %"struct.std::_Rb_tree_key_compare.38", %"struct.std::_Rb_tree_header" }
%"class.std::map.169" = type { %"class.std::_Rb_tree.170" }
%"class.std::_Rb_tree.170" = type { %"struct.std::_Rb_tree<std::__cxx11::basic_string<char>, std::pair<const std::__cxx11::basic_string<char>, cmGeneratorTarget::LinkImplClosure>, std::_Select1st<std::pair<const std::__cxx11::basic_string<char>, cmGeneratorTarget::LinkImplClosure>>, std::less<std::__cxx11::basic_string<char>>>::_Rb_tree_impl" }
%"struct.std::_Rb_tree<std::__cxx11::basic_string<char>, std::pair<const std::__cxx11::basic_string<char>, cmGeneratorTarget::LinkImplClosure>, std::_Select1st<std::pair<const std::__cxx11::basic_string<char>, cmGeneratorTarget::LinkImplClosure>>, std::less<std::__cxx11::basic_string<char>>>::_Rb_tree_impl" = type { %"struct.std::_Rb_tree_key_compare.38", %"struct.std::_Rb_tree_header" }
%"class.std::map.174" = type { %"class.std::_Rb_tree.175" }
%"class.std::_Rb_tree.175" = type { %"struct.std::_Rb_tree<std::__cxx11::basic_string<char>, std::pair<const std::__cxx11::basic_string<char>, cmHeadToLinkInterfaceMap>, std::_Select1st<std::pair<const std::__cxx11::basic_string<char>, cmHeadToLinkInterfaceMap>>, std::less<std::__cxx11::basic_string<char>>>::_Rb_tree_impl" }
%"struct.std::_Rb_tree<std::__cxx11::basic_string<char>, std::pair<const std::__cxx11::basic_string<char>, cmHeadToLinkInterfaceMap>, std::_Select1st<std::pair<const std::__cxx11::basic_string<char>, cmHeadToLinkInterfaceMap>>, std::less<std::__cxx11::basic_string<char>>>::_Rb_tree_impl" = type { %"struct.std::_Rb_tree_key_compare.38", %"struct.std::_Rb_tree_header" }
%"class.std::map.179" = type { %"class.std::_Rb_tree.180" }
%"class.std::_Rb_tree.180" = type { %"struct.std::_Rb_tree<std::__cxx11::basic_string<char>, std::pair<const std::__cxx11::basic_string<char>, cmGeneratorTarget::ImportInfo>, std::_Select1st<std::pair<const std::__cxx11::basic_string<char>, cmGeneratorTarget::ImportInfo>>, std::less<std::__cxx11::basic_string<char>>>::_Rb_tree_impl" }
%"struct.std::_Rb_tree<std::__cxx11::basic_string<char>, std::pair<const std::__cxx11::basic_string<char>, cmGeneratorTarget::ImportInfo>, std::_Select1st<std::pair<const std::__cxx11::basic_string<char>, cmGeneratorTarget::ImportInfo>>, std::less<std::__cxx11::basic_string<char>>>::_Rb_tree_impl" = type { %"struct.std::_Rb_tree_key_compare.38", %"struct.std::_Rb_tree_header" }
%"class.std::map.184" = type { %"class.std::_Rb_tree.185" }
%"class.std::_Rb_tree.185" = type { %"struct.std::_Rb_tree<std::__cxx11::basic_string<char>, std::pair<const std::__cxx11::basic_string<char>, cmGeneratorTarget::KindedSources>, std::_Select1st<std::pair<const std::__cxx11::basic_string<char>, cmGeneratorTarget::KindedSources>>, std::less<std::__cxx11::basic_string<char>>>::_Rb_tree_impl" }
%"struct.std::_Rb_tree<std::__cxx11::basic_string<char>, std::pair<const std::__cxx11::basic_string<char>, cmGeneratorTarget::KindedSources>, std::_Select1st<std::pair<const std::__cxx11::basic_string<char>, cmGeneratorTarget::KindedSources>>, std::less<std::__cxx11::basic_string<char>>>::_Rb_tree_impl" = type { %"struct.std::_Rb_tree_key_compare.38", %"struct.std::_Rb_tree_header" }
%"class.std::vector.189" = type { %"struct.std::_Vector_base.190" }
%"struct.std::_Vector_base.190" = type { %"struct.std::_Vector_base<cmGeneratorTarget::AllConfigSource, std::allocator<cmGeneratorTarget::AllConfigSource>>::_Vector_impl" }
%"struct.std::_Vector_base<cmGeneratorTarget::AllConfigSource, std::allocator<cmGeneratorTarget::AllConfigSource>>::_Vector_impl" = type { %"struct.std::_Vector_base<cmGeneratorTarget::AllConfigSource, std::allocator<cmGeneratorTarget::AllConfigSource>>::_Vector_impl_data" }
%"struct.std::_Vector_base<cmGeneratorTarget::AllConfigSource, std::allocator<cmGeneratorTarget::AllConfigSource>>::_Vector_impl_data" = type { ptr, ptr, ptr }
%"class.std::unordered_map.194" = type { %"class.std::_Hashtable.195" }
%"class.std::_Hashtable.195" = type { ptr, i64, %"struct.std::__detail::_Hash_node_base", i64, %"struct.std::__detail::_Prime_rehash_policy", ptr }
%"class.std::vector.208" = type { %"struct.std::_Vector_base.209" }
%"struct.std::_Vector_base.209" = type { %"struct.std::_Vector_base<std::unique_ptr<cmGeneratorTarget::TargetPropertyEntry>, std::allocator<std::unique_ptr<cmGeneratorTarget::TargetPropertyEntry>>>::_Vector_impl" }
%"struct.std::_Vector_base<std::unique_ptr<cmGeneratorTarget::TargetPropertyEntry>, std::allocator<std::unique_ptr<cmGeneratorTarget::TargetPropertyEntry>>>::_Vector_impl" = type { %"struct.std::_Vector_base<std::unique_ptr<cmGeneratorTarget::TargetPropertyEntry>, std::allocator<std::unique_ptr<cmGeneratorTarget::TargetPropertyEntry>>>::_Vector_impl_data" }
%"struct.std::_Vector_base<std::unique_ptr<cmGeneratorTarget::TargetPropertyEntry>, std::allocator<std::unique_ptr<cmGeneratorTarget::TargetPropertyEntry>>>::_Vector_impl_data" = type { ptr, ptr, ptr }
%"class.std::set.46" = type { %"class.std::_Rb_tree.47" }
%"class.std::_Rb_tree.47" = type { %"struct.std::_Rb_tree<std::__cxx11::basic_string<char>, std::__cxx11::basic_string<char>, std::_Identity<std::__cxx11::basic_string<char>>, std::less<std::__cxx11::basic_string<char>>>::_Rb_tree_impl" }
%"struct.std::_Rb_tree<std::__cxx11::basic_string<char>, std::__cxx11::basic_string<char>, std::_Identity<std::__cxx11::basic_string<char>>, std::less<std::__cxx11::basic_string<char>>>::_Rb_tree_impl" = type { %"struct.std::_Rb_tree_key_compare.38", %"struct.std::_Rb_tree_header" }
%"class.std::unordered_set" = type { %"class.std::_Hashtable.213" }
%"class.std::_Hashtable.213" = type { ptr, i64, %"struct.std::__detail::_Hash_node_base", i64, %"struct.std::__detail::_Prime_rehash_policy", ptr }
%"class.std::unordered_map.226" = type { %"class.std::_Hashtable.227" }
%"class.std::_Hashtable.227" = type { ptr, i64, %"struct.std::__detail::_Hash_node_base", i64, %"struct.std::__detail::_Prime_rehash_policy", ptr }
%"class.std::map.240" = type { %"class.std::_Rb_tree.241" }
%"class.std::_Rb_tree.241" = type { %"struct.std::_Rb_tree<std::__cxx11::basic_string<char>, std::pair<const std::__cxx11::basic_string<char>, cmGeneratorTarget::HeadToLinkImplementationMap>, std::_Select1st<std::pair<const std::__cxx11::basic_string<char>, cmGeneratorTarget::HeadToLinkImplementationMap>>, std::less<std::__cxx11::basic_string<char>>>::_Rb_tree_impl" }
%"struct.std::_Rb_tree<std::__cxx11::basic_string<char>, std::pair<const std::__cxx11::basic_string<char>, cmGeneratorTarget::HeadToLinkImplementationMap>, std::_Select1st<std::pair<const std::__cxx11::basic_string<char>, cmGeneratorTarget::HeadToLinkImplementationMap>>, std::less<std::__cxx11::basic_string<char>>>::_Rb_tree_impl" = type { %"struct.std::_Rb_tree_key_compare.38", %"struct.std::_Rb_tree_header" }
%"class.std::map.245" = type { %"class.std::_Rb_tree.246" }
%"class.std::_Rb_tree.246" = type { %"struct.std::_Rb_tree<std::__cxx11::basic_string<char>, std::pair<const std::__cxx11::basic_string<char>, cmGeneratorTarget::OutputInfo>, std::_Select1st<std::pair<const std::__cxx11::basic_string<char>, cmGeneratorTarget::OutputInfo>>, std::less<std::__cxx11::basic_string<char>>>::_Rb_tree_impl" }
%"struct.std::_Rb_tree<std::__cxx11::basic_string<char>, std::pair<const std::__cxx11::basic_string<char>, cmGeneratorTarget::OutputInfo>, std::_Select1st<std::pair<const std::__cxx11::basic_string<char>, cmGeneratorTarget::OutputInfo>>, std::less<std::__cxx11::basic_string<char>>>::_Rb_tree_impl" = type { %"struct.std::_Rb_tree_key_compare.38", %"struct.std::_Rb_tree_header" }
%"class.std::map.250" = type { %"class.std::_Rb_tree.251" }
%"class.std::_Rb_tree.251" = type { %"struct.std::_Rb_tree<std::__cxx11::basic_string<char>, std::pair<const std::__cxx11::basic_string<char>, cmGeneratorTarget::ModuleDefinitionInfo>, std::_Select1st<std::pair<const std::__cxx11::basic_string<char>, cmGeneratorTarget::ModuleDefinitionInfo>>, std::less<std::__cxx11::basic_string<char>>>::_Rb_tree_impl" }
%"struct.std::_Rb_tree<std::__cxx11::basic_string<char>, std::pair<const std::__cxx11::basic_string<char>, cmGeneratorTarget::ModuleDefinitionInfo>, std::_Select1st<std::pair<const std::__cxx11::basic_string<char>, cmGeneratorTarget::ModuleDefinitionInfo>>, std::less<std::__cxx11::basic_string<char>>>::_Rb_tree_impl" = type { %"struct.std::_Rb_tree_key_compare.38", %"struct.std::_Rb_tree_header" }
%"class.std::map.255" = type { %"class.std::_Rb_tree.256" }
%"class.std::_Rb_tree.256" = type { %"struct.std::_Rb_tree<std::pair<std::__cxx11::basic_string<char>, cmStateEnums::ArtifactType>, std::pair<const std::pair<std::__cxx11::basic_string<char>, cmStateEnums::ArtifactType>, std::__cxx11::basic_string<char>>, std::_Select1st<std::pair<const std::pair<std::__cxx11::basic_string<char>, cmStateEnums::ArtifactType>, std::__cxx11::basic_string<char>>>, std::less<std::pair<std::__cxx11::basic_string<char>, cmStateEnums::ArtifactType>>>::_Rb_tree_impl" }
%"struct.std::_Rb_tree<std::pair<std::__cxx11::basic_string<char>, cmStateEnums::ArtifactType>, std::pair<const std::pair<std::__cxx11::basic_string<char>, cmStateEnums::ArtifactType>, std::__cxx11::basic_string<char>>, std::_Select1st<std::pair<const std::pair<std::__cxx11::basic_string<char>, cmStateEnums::ArtifactType>, std::__cxx11::basic_string<char>>>, std::less<std::pair<std::__cxx11::basic_string<char>, cmStateEnums::ArtifactType>>>::_Rb_tree_impl" = type { %"struct.std::_Rb_tree_key_compare.260", %"struct.std::_Rb_tree_header" }
%"struct.std::_Rb_tree_key_compare.260" = type { %"struct.std::less.261" }
%"struct.std::less.261" = type { i8 }
%"class.std::set.263" = type { %"class.std::_Rb_tree.264" }
%"class.std::_Rb_tree.264" = type { %"struct.std::_Rb_tree<cmLinkItem, cmLinkItem, std::_Identity<cmLinkItem>, std::less<cmLinkItem>>::_Rb_tree_impl" }
%"struct.std::_Rb_tree<cmLinkItem, cmLinkItem, std::_Identity<cmLinkItem>, std::less<cmLinkItem>>::_Rb_tree_impl" = type { %"struct.std::_Rb_tree_key_compare.268", %"struct.std::_Rb_tree_header" }
%"struct.std::_Rb_tree_key_compare.268" = type { %"struct.std::less.269" }
%"struct.std::less.269" = type { i8 }
%"struct.cmPolicies::PolicyMap" = type { %"class.std::bitset" }
%"class.std::bitset" = type { %"struct.std::_Base_bitset" }
%"struct.std::_Base_bitset" = type { [8 x i64] }
%"class.std::map.271" = type { %"class.std::_Rb_tree.272" }
%"class.std::_Rb_tree.272" = type { %"struct.std::_Rb_tree<std::__cxx11::basic_string<char>, std::pair<const std::__cxx11::basic_string<char>, BTs<std::__cxx11::basic_string<char>>>, std::_Select1st<std::pair<const std::__cxx11::basic_string<char>, BTs<std::__cxx11::basic_string<char>>>>, std::less<std::__cxx11::basic_string<char>>>::_Rb_tree_impl" }
%"struct.std::_Rb_tree<std::__cxx11::basic_string<char>, std::pair<const std::__cxx11::basic_string<char>, BTs<std::__cxx11::basic_string<char>>>, std::_Select1st<std::pair<const std::__cxx11::basic_string<char>, BTs<std::__cxx11::basic_string<char>>>>, std::less<std::__cxx11::basic_string<char>>>::_Rb_tree_impl" = type { %"struct.std::_Rb_tree_key_compare.38", %"struct.std::_Rb_tree_header" }
%"class.std::map.276" = type { %"class.std::_Rb_tree.277" }
%"class.std::_Rb_tree.277" = type { %"struct.std::_Rb_tree<std::__cxx11::basic_string<char>, std::pair<const std::__cxx11::basic_string<char>, cmStandardLevel>, std::_Select1st<std::pair<const std::__cxx11::basic_string<char>, cmStandardLevel>>, std::less<std::__cxx11::basic_string<char>>>::_Rb_tree_impl" }
%"struct.std::_Rb_tree<std::__cxx11::basic_string<char>, std::pair<const std::__cxx11::basic_string<char>, cmStandardLevel>, std::_Select1st<std::pair<const std::__cxx11::basic_string<char>, cmStandardLevel>>, std::less<std::__cxx11::basic_string<char>>>::_Rb_tree_impl" = type { %"struct.std::_Rb_tree_key_compare.38", %"struct.std::_Rb_tree_header" }
%"class.std::map.281" = type { %"class.std::_Rb_tree.282" }
%"class.std::_Rb_tree.282" = type { %"struct.std::_Rb_tree<std::__cxx11::basic_string<char>, std::pair<const std::__cxx11::basic_string<char>, cmGeneratorTarget::InfoByConfig>, std::_Select1st<std::pair<const std::__cxx11::basic_string<char>, cmGeneratorTarget::InfoByConfig>>, std::less<std::__cxx11::basic_string<char>>>::_Rb_tree_impl" }
%"struct.std::_Rb_tree<std::__cxx11::basic_string<char>, std::pair<const std::__cxx11::basic_string<char>, cmGeneratorTarget::InfoByConfig>, std::_Select1st<std::pair<const std::__cxx11::basic_string<char>, cmGeneratorTarget::InfoByConfig>>, std::less<std::__cxx11::basic_string<char>>>::_Rb_tree_impl" = type { %"struct.std::_Rb_tree_key_compare.38", %"struct.std::_Rb_tree_header" }

; Function Attrs: mustprogress uwtable
define dso_local noundef i32 @_ZNK26cmExportBuildFileGenerator19GetExportTargetTypeEPK17cmGeneratorTarget(ptr noundef nonnull align 8 dereferenceable(440) %0, ptr noundef %1) #4 align 2 {
  %3 = alloca ptr, align 8
  %4 = alloca ptr, align 8
  %5 = alloca i32, align 4
  store ptr %0, ptr %3, align 8
  store ptr %1, ptr %4, align 8
  %6 = load ptr, ptr %4, align 8
  %7 = call noundef i32 @_ZNK17cmGeneratorTarget7GetTypeEv(ptr noundef nonnull align 8 dereferenceable(2728) %6)
  store i32 %7, ptr %5, align 4
  %8 = load i32, ptr %5, align 4
  %9 = icmp eq i32 %8, 4
  br i1 %9, label %10, label %16

10:                                               ; preds = %2
  %11 = load ptr, ptr %4, align 8
  %12 = getelementptr inbounds %class.cmGeneratorTarget, ptr %11, i32 0, i32 0
  %13 = load ptr, ptr %12, align 8
  %14 = call noundef zeroext i1 @_ZNK8cmTarget26HasKnownObjectFileLocationEPNSt7__cxx1112basic_stringIcSt11char_traitsIcESaIcEEE(ptr noundef nonnull align 8 dereferenceable(8) %13, ptr noundef null)
  br i1 %14, label %16, label %15

15:                                               ; preds = %10
  store i32 7, ptr %5, align 4
  br label %16

16:                                               ; preds = %15, %10, %2
  %17 = load i32, ptr %5, align 4
  ret i32 %17
}