; Function Attrs: mustprogress uwtable
define dso_local noundef i32 @_ZNK26cmExportBuildFileGenerator19GetExportTargetTypeEPK17cmGeneratorTarget(ptr nocapture noundef nonnull readnone align 8 dereferenceable(440) %0, ptr noundef nonnull %1) local_unnamed_addr #3 align 2 {
  %3 = tail call noundef i32 @_ZNK17cmGeneratorTarget7GetTypeEv(ptr noundef nonnull align 8 dereferenceable(2728) %1)
  %4 = icmp eq i32 %3, 4
  br i1 %4, label %5, label %8

5:                                                ; preds = %2
  %6 = load ptr, ptr %1, align 8
  %7 = tail call noundef zeroext i1 @_ZNK8cmTarget26HasKnownObjectFileLocationEPNSt7__cxx1112basic_stringIcSt11char_traitsIcESaIcEEE(ptr noundef nonnull align 8 dereferenceable(8) %6, ptr noundef null)
  %spec.select = select i1 %7, i32 4, i32 7
  br label %8

8:                                                ; preds = %5, %2
  %.0 = phi i32 [ %3, %2 ], [ %spec.select, %5 ]
  ret i32 %.0
}